; Function Attrs: mustprogress uwtable
define internal noundef i32 @_ZL7getInSCRK11IntPropertyi9UProperty(ptr nocapture nonnull readnone align 8 %0, i32 noundef %c, i32 %1) #0 {
entry:
  %errorCode.i = alloca i32, align 4
  call void @llvm.lifetime.start.p0(i64 4, ptr nonnull %errorCode.i)
  store i32 0, ptr %errorCode.i, align 4
  %call.i = call fastcc noundef signext i8 @_ZN12_GLOBAL__N_118ulayout_ensureDataER10UErrorCode(ptr noundef nonnull align 4 dereferenceable(4) %errorCode.i), !range !4
  call void @llvm.lifetime.end.p0(i64 4, ptr nonnull %errorCode.i)
  %tobool = icmp ne i8 %call.i, 0
  %2 = load ptr, ptr @_ZN12_GLOBAL__N_19gInscTrieE, align 8
  %cmp = icmp ne ptr %2, null
  %or.cond = select i1 %tobool, i1 %cmp, i1 false
  br i1 %or.cond, label %cond.true, label %cond.end

cond.true:                                        ; preds = %entry
  %call2 = call i32 @ucptrie_get_75(ptr noundef nonnull %2, i32 noundef %c)
  br label %cond.end

cond.end:                                         ; preds = %entry, %cond.true
  %cond = phi i32 [ %call2, %cond.true ], [ 0, %entry ]
  ret i32 %cond
}